target datalayout = "e-m:e-p270:32:32-p271:32:32-p272:64:64-i64:64-i128:128-f80:128-n8:16:32:64-S128"
target triple = "x86_64-pc-linux-gnu"

%class.symbol = type { ptr }

; Function Attrs: mustprogress nounwind uwtable
define hidden noundef zeroext i1 @_ZNK6symbol8containsEc(ptr noundef nonnull align 8 dereferenceable(8) %0, i8 noundef signext %1) #4 align 2 {
  %3 = alloca i1, align 1
  %4 = alloca ptr, align 8
  %5 = alloca i8, align 1
  store ptr %0, ptr %4, align 8, !tbaa !3
  store i8 %1, ptr %5, align 1, !tbaa !39
  %6 = load ptr, ptr %4, align 8
  %7 = getelementptr inbounds nuw %class.symbol, ptr %6, i32 0, i32 0
  %8 = load ptr, ptr %7, align 8, !tbaa !9
  %9 = ptrtoint ptr %8 to i64
  %10 = and i64 %9, 7
  %11 = icmp eq i64 %10, 0
  br i1 %11, label %12, label %19

12:                                               ; preds = %2
  %13 = getelementptr inbounds nuw %class.symbol, ptr %6, i32 0, i32 0
  %14 = load ptr, ptr %13, align 8, !tbaa !9
  %15 = load i8, ptr %5, align 1, !tbaa !39
  %16 = sext i8 %15 to i32
  %17 = call noundef ptr @strchr(ptr noundef %14, i32 noundef %16) #20
  %18 = icmp ne ptr %17, null
  store i1 %18, ptr %3, align 1
  br label %20

19:                                               ; preds = %2
  store i1 false, ptr %3, align 1
  br label %20

20:                                               ; preds = %19, %12
  %21 = load i1, ptr %3, align 1
  ret i1 %21
}