; Function Attrs: mustprogress nofree nounwind willreturn memory(read, inaccessiblemem: none) uwtable
define hidden noundef zeroext i1 @_ZNK6symbol8containsEc(ptr noundef nonnull readonly align 8 captures(none) dereferenceable(8) %0, i8 noundef signext %1) local_unnamed_addr #6 align 2 {
  %3 = load ptr, ptr %0, align 8, !tbaa !34
  %4 = ptrtoint ptr %3 to i64
  %5 = and i64 %4, 7
  %6 = icmp eq i64 %5, 0
  br i1 %6, label %7, label %11

7:                                                ; preds = %2
  %8 = sext i8 %1 to i32
  %9 = tail call noundef ptr @strchr(ptr noundef nonnull dereferenceable(1) %3, i32 noundef %8) #20
  %10 = icmp ne ptr %9, null
  br label %11

11:                                               ; preds = %2, %7
  %.0 = phi i1 [ %10, %7 ], [ false, %2 ]
  ret i1 %.0
}